; Function Attrs: mustprogress uwtable
define noundef i32 @_ZN7logging18GetVlogLevelHelperEPKcm(ptr noundef %0, i64 noundef %1) local_unnamed_addr #0 personality ptr @__gxx_personality_v0 {
  %3 = alloca %"class.base::BasicStringPiece", align 8
  %4 = load ptr, ptr @_ZN7logging12_GLOBAL__N_111g_vlog_infoE, align 8, !tbaa !74
  %.not = icmp eq ptr %4, null
  call void @llvm.lifetime.start.p0(i64 16, ptr nonnull %3) #24
  br i1 %.not, label %9, label %5

5:                                                ; preds = %2
  %6 = add i64 %1, -1
  store ptr %0, ptr %3, align 8, !tbaa !76
  %7 = getelementptr inbounds nuw i8, ptr %3, i64 8
  store i64 %6, ptr %7, align 8, !tbaa !78
  %8 = call noundef i32 @_ZNK7logging8VlogInfo12GetVlogLevelERKN4base16BasicStringPieceINSt7__cxx1112basic_stringIcSt11char_traitsIcESaIcEEEEE(ptr noundef nonnull align 8 dereferenceable(32) %4, ptr noundef nonnull align 8 dereferenceable(16) %3)
  br label %12

9:                                                ; preds = %2
  %10 = load i32, ptr @_ZN7logging12_GLOBAL__N_115g_min_log_levelE, align 4, !tbaa !19
  %11 = sub nsw i32 0, %10
  %.sroa.speculated.i = tail call noundef range(i32 -1, -2147483648) i32 @llvm.smax.i32(i32 %11, i32 -1)
  br label %12

12:                                               ; preds = %9, %5
  %13 = phi i32 [ %8, %5 ], [ %.sroa.speculated.i, %9 ]
  call void @llvm.lifetime.end.p0(i64 16, ptr nonnull %3) #24
  ret i32 %13
}